; Function Attrs: mustprogress nofree norecurse nosync nounwind willreturn memory(read, argmem: readwrite, inaccessiblemem: none) uwtable
define void @_ZN5Ipopt19CGPenaltyLSAcceptor5ResetEv(ptr noundef nonnull align 8 captures(none) dereferenceable(408) initializes((160, 168), (176, 184), (240, 248), (392, 393)) %0) unnamed_addr #10 align 2 {
  %2 = getelementptr inbounds nuw i8, ptr %0, i64 392
  store i8 1, ptr %2, align 8, !tbaa !80
  %3 = getelementptr inbounds nuw i8, ptr %0, i64 160
  store double -1.000000e+00, ptr %3, align 8, !tbaa !55
  %4 = getelementptr inbounds nuw i8, ptr %0, i64 240
  store double -1.000000e+00, ptr %4, align 8, !tbaa !69
  %5 = getelementptr inbounds nuw i8, ptr %0, i64 32
  %6 = load ptr, ptr %5, align 8, !tbaa !24
  %7 = getelementptr inbounds nuw i8, ptr %6, i64 72
  %8 = load double, ptr %7, align 8, !tbaa !56
  %9 = getelementptr inbounds nuw i8, ptr %0, i64 176
  store double %8, ptr %9, align 8, !tbaa !66
  ret void
}